; Function Attrs: nounwind uwtable
define hidden range(i32 0, 44) i32 @Curl_dynhds_h1_add_line(ptr noundef captures(none) %0, ptr noundef %1, i64 noundef %2) local_unnamed_addr #1 {
  %4 = icmp ne ptr %1, null
  %5 = icmp ne i64 %2, 0
  %or.cond = and i1 %4, %5
  br i1 %or.cond, label %6, label %.critedge73

6:                                                ; preds = %3
  %7 = load i8, ptr %1, align 1, !tbaa !30
  switch i8 %7, label %49 [
    i8 32, label %8
    i8 9, label %8
  ]

8:                                                ; preds = %6, %6
  %9 = getelementptr inbounds nuw i8, ptr %0, i64 8
  %10 = load i64, ptr %9, align 8, !tbaa !15
  %.not70 = icmp eq i64 %10, 0
  br i1 %.not70, label %.critedge73, label %.preheader

.preheader:                                       ; preds = %8, %.critedge3
  %.05477 = phi ptr [ %12, %.critedge3 ], [ %1, %8 ]
  %.05776 = phi i64 [ %13, %.critedge3 ], [ %2, %8 ]
  %11 = load i8, ptr %.05477, align 1, !tbaa !30
  switch i8 %11, label %.critedge [
    i8 32, label %.critedge3
    i8 9, label %.critedge3
  ]

.critedge3:                                       ; preds = %.preheader, %.preheader
  %12 = getelementptr inbounds nuw i8, ptr %.05477, i64 1
  %13 = add i64 %.05776, -1
  %.not71 = icmp eq i64 %13, 0
  br i1 %.not71, label %.critedge73, label %.preheader, !llvm.loop !31

.critedge:                                        ; preds = %.preheader
  %14 = load ptr, ptr %0, align 8, !tbaa !14
  %15 = getelementptr ptr, ptr %14, i64 %10
  %16 = getelementptr i8, ptr %15, i64 -8
  %17 = load ptr, ptr %16, align 8, !tbaa !16
  %18 = getelementptr inbounds nuw i8, ptr %17, i64 24
  %19 = load i64, ptr %18, align 8, !tbaa !28
  %20 = add i64 %.05776, 1
  %21 = add i64 %20, %19
  %22 = load ptr, ptr @Curl_ccalloc, align 8, !tbaa !18
  %23 = getelementptr inbounds nuw i8, ptr %17, i64 16
  %24 = load i64, ptr %23, align 8, !tbaa !22
  %25 = add i64 %21, 34
  %26 = add i64 %25, %24
  %27 = tail call ptr %22(i64 noundef 1, i64 noundef %26) #9
  %.not.i = icmp eq ptr %27, null
  br i1 %.not.i, label %.critedge73, label %28

28:                                               ; preds = %.critedge
  %29 = getelementptr inbounds nuw i8, ptr %27, i64 32
  store ptr %29, ptr %27, align 8, !tbaa !25
  %30 = load ptr, ptr %17, align 8, !tbaa !25
  %31 = load i64, ptr %23, align 8, !tbaa !22
  tail call void @llvm.memcpy.p0.p0.i64(ptr nonnull align 1 %29, ptr align 1 %30, i64 %31, i1 false)
  %32 = load i64, ptr %23, align 8, !tbaa !22
  %33 = getelementptr inbounds nuw i8, ptr %27, i64 16
  store i64 %32, ptr %33, align 8, !tbaa !22
  %34 = getelementptr i8, ptr %29, i64 %32
  %35 = getelementptr i8, ptr %34, i64 1
  %36 = getelementptr inbounds nuw i8, ptr %27, i64 8
  store ptr %35, ptr %36, align 8, !tbaa !27
  %37 = getelementptr inbounds nuw i8, ptr %17, i64 8
  %38 = load ptr, ptr %37, align 8, !tbaa !27
  %39 = load i64, ptr %18, align 8, !tbaa !28
  tail call void @llvm.memcpy.p0.p0.i64(ptr align 1 %35, ptr align 1 %38, i64 %39, i1 false)
  %40 = load i64, ptr %18, align 8, !tbaa !28
  %41 = getelementptr inbounds nuw i8, ptr %35, i64 %40
  store i8 32, ptr %41, align 1, !tbaa !30
  %42 = getelementptr inbounds nuw i8, ptr %41, i64 1
  tail call void @llvm.memcpy.p0.p0.i64(ptr noundef nonnull align 1 dereferenceable(1) %42, ptr noundef nonnull readonly align 1 dereferenceable(1) %.05477, i64 range(i64 1, 0) %.05776, i1 false)
  %43 = getelementptr inbounds nuw i8, ptr %27, i64 24
  store i64 %21, ptr %43, align 8, !tbaa !28
  %44 = load ptr, ptr %0, align 8, !tbaa !14
  %45 = load i64, ptr %9, align 8, !tbaa !15
  %46 = getelementptr ptr, ptr %44, i64 %45
  %47 = getelementptr i8, ptr %46, i64 -8
  store ptr %27, ptr %47, align 8, !tbaa !16
  %48 = load ptr, ptr @Curl_cfree, align 8, !tbaa !18
  tail call void %48(ptr noundef nonnull %17) #9
  br label %.critedge73

49:                                               ; preds = %6
  %50 = tail call ptr @memchr(ptr noundef nonnull %1, i32 noundef 58, i64 noundef %2) #10
  %.not = icmp eq ptr %50, null
  br i1 %.not, label %.critedge73, label %51

51:                                               ; preds = %49
  %52 = ptrtoint ptr %50 to i64
  %53 = ptrtoint ptr %1 to i64
  %54 = sub i64 %52, %53
  %.05878 = getelementptr inbounds nuw i8, ptr %50, i64 1
  %.05579 = add i64 %54, 1
  %55 = icmp ult i64 %.05579, %2
  br i1 %55, label %.lr.ph, label %._crit_edge

.lr.ph:                                           ; preds = %51, %57
  %.05581 = phi i64 [ %.055, %57 ], [ %.05579, %51 ]
  %.05880 = phi ptr [ %.058, %57 ], [ %.05878, %51 ]
  %56 = load i8, ptr %.05880, align 1, !tbaa !30
  switch i8 %56, label %._crit_edge [
    i8 32, label %57
    i8 9, label %57
  ]

57:                                               ; preds = %.lr.ph, %.lr.ph
  %.058 = getelementptr inbounds nuw i8, ptr %.05880, i64 1
  %.055 = add nuw i64 %.05581, 1
  %58 = icmp ult i64 %.055, %2
  br i1 %58, label %.lr.ph, label %._crit_edge, !llvm.loop !32

._crit_edge:                                      ; preds = %57, %.lr.ph, %51
  %.058.lcssa = phi ptr [ %.05878, %51 ], [ %.05880, %.lr.ph ], [ %.058, %57 ]
  %.055.lcssa = phi i64 [ %.05579, %51 ], [ %.05581, %.lr.ph ], [ %2, %57 ]
  %59 = sub i64 %2, %.055.lcssa
  %60 = tail call ptr @memchr(ptr noundef nonnull %.058.lcssa, i32 noundef 13, i64 noundef %59) #10
  %.not68 = icmp eq ptr %60, null
  br i1 %.not68, label %61, label %63

61:                                               ; preds = %._crit_edge
  %62 = tail call ptr @memchr(ptr noundef nonnull %.058.lcssa, i32 noundef 10, i64 noundef %59) #10
  br label %63

63:                                               ; preds = %61, %._crit_edge
  %.159 = phi ptr [ %60, %._crit_edge ], [ %62, %61 ]
  %.not69 = icmp eq ptr %.159, null
  %64 = ptrtoint ptr %.159 to i64
  %65 = ptrtoint ptr %.058.lcssa to i64
  %66 = sub i64 %64, %65
  %.056 = select i1 %.not69, i64 %59, i64 %66
  %67 = tail call i32 @Curl_dynhds_add(ptr noundef %0, ptr noundef nonnull %1, i64 noundef %54, ptr noundef nonnull %.058.lcssa, i64 noundef %.056)
  br label %.critedge73

.critedge73:                                      ; preds = %.critedge3, %.critedge, %49, %28, %8, %3, %63
  %.0 = phi i32 [ %67, %63 ], [ 0, %3 ], [ 0, %28 ], [ 43, %8 ], [ 43, %49 ], [ 27, %.critedge ], [ 43, %.critedge3 ]
  ret i32 %.0
}